; Function Attrs: mustprogress nofree norecurse nounwind willreturn memory(argmem: readwrite, inaccessiblemem: readwrite) uwtable
define internal void @_ZZN12JvmtiEnvBase27check_for_periodic_clean_upEvEN28ThreadInsideIterationClosure9do_threadEP6Thread(ptr nocapture noundef nonnull align 8 dereferenceable(9) %0, ptr noundef %1) unnamed_addr #14 align 2 {
  %3 = getelementptr inbounds i8, ptr %1, i64 844
  %4 = load volatile i32, ptr %3, align 4
  %5 = icmp sgt i32 %4, 0
  %6 = getelementptr inbounds i8, ptr %0, i64 8
  %7 = load i8, ptr %6, align 8
  %8 = and i8 %7, 1
  %9 = zext i1 %5 to i8
  %10 = or i8 %8, %9
  store i8 %10, ptr %6, align 8
  ret void
}